target datalayout = "e-m:e-p270:32:32-p271:32:32-p272:64:64-i64:64-i128:128-f80:128-n8:16:32:64-S128"
target triple = "x86_64-pc-linux-gnu"

%"class.Json::Value" = type { %"union.Json::Value::ValueHolder", %struct.anon, %"class.Json::Value::Comments", i64, i64 }
%"union.Json::Value::ValueHolder" = type { i64 }
%struct.anon = type { i16, [2 x i8] }
%"class.Json::Value::Comments" = type { %"class.std::unique_ptr" }
%"class.std::unique_ptr" = type { %"struct.std::__uniq_ptr_data" }
%"struct.std::__uniq_ptr_data" = type { %"class.std::__uniq_ptr_impl" }
%"class.std::__uniq_ptr_impl" = type { %"class.std::tuple" }
%"class.std::tuple" = type { %"struct.std::_Tuple_impl" }
%"struct.std::_Tuple_impl" = type { %"struct.std::_Head_base.4" }
%"struct.std::_Head_base.4" = type { ptr }
%"class.open3d::visualization::RenderOptionWithEditing" = type { %"class.open3d::visualization::RenderOption.base", %"class.Eigen::Matrix", %"class.Eigen::Matrix", double, double }
%"class.open3d::visualization::RenderOption.base" = type <{ %"class.open3d::utility::IJsonConvertible", double, double, double, double, double, double, double, double, %"class.Eigen::Matrix", i32, i32, i8, [7 x i8], [4 x %"class.Eigen::Matrix"], [4 x %"class.Eigen::Matrix"], %"class.Eigen::Matrix", [4 x double], [4 x double], [4 x double], double, i32, i8, [3 x i8], i32, i32, i8, i8, [6 x i8], %"class.Eigen::Matrix", double, i32, i32, i8 }>
%"class.open3d::utility::IJsonConvertible" = type { ptr }
%"class.Eigen::Matrix" = type { %"class.Eigen::PlainObjectBase" }
%"class.Eigen::PlainObjectBase" = type { %"class.Eigen::DenseStorage" }
%"class.Eigen::DenseStorage" = type { %"struct.Eigen::internal::plain_array" }
%"struct.Eigen::internal::plain_array" = type { [3 x double] }

@.str = private unnamed_addr constant [33 x i8] c"selection_polygon_boundary_color\00", align 1
@.str.3 = private unnamed_addr constant [29 x i8] c"selection_polygon_mask_color\00", align 1
@.str.4 = private unnamed_addr constant [29 x i8] c"selection_polygon_mask_alpha\00", align 1
@.str.5 = private unnamed_addr constant [30 x i8] c"pointcloud_picker_sphere_size\00", align 1

; Function Attrs: mustprogress ssp uwtable
define noundef zeroext i1 @_ZNK6open3d13visualization23RenderOptionWithEditing18ConvertToJsonValueERN4Json5ValueE(ptr noundef nonnull align 8 dereferenceable(568) %0, ptr noundef nonnull align 8 dereferenceable(40) %1) unnamed_addr #1 align 2 personality ptr @__gxx_personality_v0 {
  %3 = alloca i1, align 1
  %4 = alloca ptr, align 8
  %5 = alloca ptr, align 8
  %6 = alloca %"class.Json::Value", align 8
  %7 = alloca ptr, align 8
  %8 = alloca i32, align 4
  %9 = alloca %"class.Json::Value", align 8
  store ptr %0, ptr %4, align 8, !tbaa !9
  store ptr %1, ptr %5, align 8, !tbaa !11
  %10 = load ptr, ptr %4, align 8
  %11 = load ptr, ptr %5, align 8, !tbaa !11
  %12 = call noundef zeroext i1 @_ZNK6open3d13visualization12RenderOption18ConvertToJsonValueERN4Json5ValueE(ptr noundef nonnull align 8 dereferenceable(497) %10, ptr noundef nonnull align 8 dereferenceable(40) %11)
  br i1 %12, label %14, label %13

13:                                               ; preds = %2
  store i1 false, ptr %3, align 1
  br label %49

14:                                               ; preds = %2
  %15 = getelementptr inbounds nuw %"class.open3d::visualization::RenderOptionWithEditing", ptr %10, i32 0, i32 1
  %16 = load ptr, ptr %5, align 8, !tbaa !11
  %17 = call noundef nonnull align 8 dereferenceable(40) ptr @_ZN4Json5ValueixEPKc(ptr noundef nonnull align 8 dereferenceable(40) %16, ptr noundef @.str)
  %18 = call noundef zeroext i1 @_ZN6open3d7utility16IJsonConvertible24EigenVector3dToJsonArrayERKN5Eigen6MatrixIdLi3ELi1ELi0ELi3ELi1EEERN4Json5ValueE(ptr noundef nonnull align 8 dereferenceable(24) %15, ptr noundef nonnull align 8 dereferenceable(40) %17)
  br i1 %18, label %20, label %19

19:                                               ; preds = %14
  store i1 false, ptr %3, align 1
  br label %49

20:                                               ; preds = %14
  %21 = getelementptr inbounds nuw %"class.open3d::visualization::RenderOptionWithEditing", ptr %10, i32 0, i32 2
  %22 = load ptr, ptr %5, align 8, !tbaa !11
  %23 = call noundef nonnull align 8 dereferenceable(40) ptr @_ZN4Json5ValueixEPKc(ptr noundef nonnull align 8 dereferenceable(40) %22, ptr noundef @.str.3)
  %24 = call noundef zeroext i1 @_ZN6open3d7utility16IJsonConvertible24EigenVector3dToJsonArrayERKN5Eigen6MatrixIdLi3ELi1ELi0ELi3ELi1EEERN4Json5ValueE(ptr noundef nonnull align 8 dereferenceable(24) %21, ptr noundef nonnull align 8 dereferenceable(40) %23)
  br i1 %24, label %26, label %25

25:                                               ; preds = %20
  store i1 false, ptr %3, align 1
  br label %49

26:                                               ; preds = %20
  call void @llvm.lifetime.start.p0(i64 40, ptr %6) #7
  %27 = getelementptr inbounds nuw %"class.open3d::visualization::RenderOptionWithEditing", ptr %10, i32 0, i32 3
  %28 = load double, ptr %27, align 8, !tbaa !13
  call void @_ZN4Json5ValueC1Ed(ptr noundef nonnull align 8 dereferenceable(40) %6, double noundef %28)
  %29 = load ptr, ptr %5, align 8, !tbaa !11
  %30 = invoke noundef nonnull align 8 dereferenceable(40) ptr @_ZN4Json5ValueixEPKc(ptr noundef nonnull align 8 dereferenceable(40) %29, ptr noundef @.str.4)
          to label %31 unwind label %41

31:                                               ; preds = %26
  %32 = invoke noundef nonnull align 8 dereferenceable(40) ptr @_ZN4Json5ValueaSEOS0_(ptr noundef nonnull align 8 dereferenceable(40) %30, ptr noundef nonnull align 8 dereferenceable(40) %6)
          to label %33 unwind label %41

33:                                               ; preds = %31
  call void @_ZN4Json5ValueD1Ev(ptr noundef nonnull align 8 dereferenceable(40) %6) #7
  call void @llvm.lifetime.end.p0(i64 40, ptr %6) #7
  call void @llvm.lifetime.start.p0(i64 40, ptr %9) #7
  %34 = getelementptr inbounds nuw %"class.open3d::visualization::RenderOptionWithEditing", ptr %10, i32 0, i32 4
  %35 = load double, ptr %34, align 8, !tbaa !30
  call void @_ZN4Json5ValueC1Ed(ptr noundef nonnull align 8 dereferenceable(40) %9, double noundef %35)
  %36 = load ptr, ptr %5, align 8, !tbaa !11
  %37 = invoke noundef nonnull align 8 dereferenceable(40) ptr @_ZN4Json5ValueixEPKc(ptr noundef nonnull align 8 dereferenceable(40) %36, ptr noundef @.str.5)
          to label %38 unwind label %45

38:                                               ; preds = %33
  %39 = invoke noundef nonnull align 8 dereferenceable(40) ptr @_ZN4Json5ValueaSEOS0_(ptr noundef nonnull align 8 dereferenceable(40) %37, ptr noundef nonnull align 8 dereferenceable(40) %9)
          to label %40 unwind label %45

40:                                               ; preds = %38
  call void @_ZN4Json5ValueD1Ev(ptr noundef nonnull align 8 dereferenceable(40) %9) #7
  call void @llvm.lifetime.end.p0(i64 40, ptr %9) #7
  store i1 true, ptr %3, align 1
  br label %49

41:                                               ; preds = %31, %26
  %42 = landingpad { ptr, i32 }
          cleanup
  %43 = extractvalue { ptr, i32 } %42, 0
  store ptr %43, ptr %7, align 8
  %44 = extractvalue { ptr, i32 } %42, 1
  store i32 %44, ptr %8, align 4
  call void @_ZN4Json5ValueD1Ev(ptr noundef nonnull align 8 dereferenceable(40) %6) #7
  call void @llvm.lifetime.end.p0(i64 40, ptr %6) #7
  br label %51

45:                                               ; preds = %38, %33
  %46 = landingpad { ptr, i32 }
          cleanup
  %47 = extractvalue { ptr, i32 } %46, 0
  store ptr %47, ptr %7, align 8
  %48 = extractvalue { ptr, i32 } %46, 1
  store i32 %48, ptr %8, align 4
  call void @_ZN4Json5ValueD1Ev(ptr noundef nonnull align 8 dereferenceable(40) %9) #7
  call void @llvm.lifetime.end.p0(i64 40, ptr %9) #7
  br label %51

49:                                               ; preds = %40, %25, %19, %13
  %50 = load i1, ptr %3, align 1
  ret i1 %50

51:                                               ; preds = %45, %41
  %52 = load ptr, ptr %7, align 8
  %53 = load i32, ptr %8, align 4
  %54 = insertvalue { ptr, i32 } poison, ptr %52, 0
  %55 = insertvalue { ptr, i32 } %54, i32 %53, 1
  resume { ptr, i32 } %55
}