; Function Attrs: mustprogress ssp uwtable
define noundef zeroext i1 @_ZNK6open3d13visualization23RenderOptionWithEditing18ConvertToJsonValueERN4Json5ValueE(ptr noundef nonnull align 8 dereferenceable(568) %0, ptr noundef nonnull align 8 dereferenceable(40) %1) unnamed_addr #1 align 2 personality ptr @__gxx_personality_v0 {
  %3 = alloca %"class.Json::Value", align 8
  %4 = alloca %"class.Json::Value", align 8
  %5 = tail call noundef zeroext i1 @_ZNK6open3d13visualization12RenderOption18ConvertToJsonValueERN4Json5ValueE(ptr noundef nonnull align 8 dereferenceable(497) %0, ptr noundef nonnull align 8 dereferenceable(40) %1)
  br i1 %5, label %6, label %31

6:                                                ; preds = %2
  %7 = getelementptr inbounds nuw i8, ptr %0, i64 504
  %8 = tail call noundef nonnull align 8 dereferenceable(40) ptr @_ZN4Json5ValueixEPKc(ptr noundef nonnull align 8 dereferenceable(40) %1, ptr noundef nonnull @.str)
  %9 = tail call noundef zeroext i1 @_ZN6open3d7utility16IJsonConvertible24EigenVector3dToJsonArrayERKN5Eigen6MatrixIdLi3ELi1ELi0ELi3ELi1EEERN4Json5ValueE(ptr noundef nonnull align 8 dereferenceable(24) %7, ptr noundef nonnull align 8 dereferenceable(40) %8)
  br i1 %9, label %10, label %31

10:                                               ; preds = %6
  %11 = getelementptr inbounds nuw i8, ptr %0, i64 528
  %12 = tail call noundef nonnull align 8 dereferenceable(40) ptr @_ZN4Json5ValueixEPKc(ptr noundef nonnull align 8 dereferenceable(40) %1, ptr noundef nonnull @.str.3)
  %13 = tail call noundef zeroext i1 @_ZN6open3d7utility16IJsonConvertible24EigenVector3dToJsonArrayERKN5Eigen6MatrixIdLi3ELi1ELi0ELi3ELi1EEERN4Json5ValueE(ptr noundef nonnull align 8 dereferenceable(24) %11, ptr noundef nonnull align 8 dereferenceable(40) %12)
  br i1 %13, label %14, label %31

14:                                               ; preds = %10
  call void @llvm.lifetime.start.p0(i64 40, ptr nonnull %3) #8
  %15 = getelementptr inbounds nuw i8, ptr %0, i64 552
  %16 = load double, ptr %15, align 8, !tbaa !4
  call void @_ZN4Json5ValueC1Ed(ptr noundef nonnull align 8 dereferenceable(40) %3, double noundef %16)
  %17 = invoke noundef nonnull align 8 dereferenceable(40) ptr @_ZN4Json5ValueixEPKc(ptr noundef nonnull align 8 dereferenceable(40) %1, ptr noundef nonnull @.str.4)
          to label %18 unwind label %27

18:                                               ; preds = %14
  %19 = invoke noundef nonnull align 8 dereferenceable(40) ptr @_ZN4Json5ValueaSEOS0_(ptr noundef nonnull align 8 dereferenceable(40) %17, ptr noundef nonnull align 8 dereferenceable(40) %3)
          to label %20 unwind label %27

20:                                               ; preds = %18
  call void @_ZN4Json5ValueD1Ev(ptr noundef nonnull align 8 dereferenceable(40) %3) #8
  call void @llvm.lifetime.end.p0(i64 40, ptr nonnull %3) #8
  call void @llvm.lifetime.start.p0(i64 40, ptr nonnull %4) #8
  %21 = getelementptr inbounds nuw i8, ptr %0, i64 560
  %22 = load double, ptr %21, align 8, !tbaa !23
  call void @_ZN4Json5ValueC1Ed(ptr noundef nonnull align 8 dereferenceable(40) %4, double noundef %22)
  %23 = invoke noundef nonnull align 8 dereferenceable(40) ptr @_ZN4Json5ValueixEPKc(ptr noundef nonnull align 8 dereferenceable(40) %1, ptr noundef nonnull @.str.5)
          to label %24 unwind label %29

24:                                               ; preds = %20
  %25 = invoke noundef nonnull align 8 dereferenceable(40) ptr @_ZN4Json5ValueaSEOS0_(ptr noundef nonnull align 8 dereferenceable(40) %23, ptr noundef nonnull align 8 dereferenceable(40) %4)
          to label %26 unwind label %29

26:                                               ; preds = %24
  call void @_ZN4Json5ValueD1Ev(ptr noundef nonnull align 8 dereferenceable(40) %4) #8
  call void @llvm.lifetime.end.p0(i64 40, ptr nonnull %4) #8
  br label %31

27:                                               ; preds = %18, %14
  %28 = landingpad { ptr, i32 }
          cleanup
  call void @_ZN4Json5ValueD1Ev(ptr noundef nonnull align 8 dereferenceable(40) %3) #8
  call void @llvm.lifetime.end.p0(i64 40, ptr nonnull %3) #8
  br label %32

29:                                               ; preds = %24, %20
  %30 = landingpad { ptr, i32 }
          cleanup
  call void @_ZN4Json5ValueD1Ev(ptr noundef nonnull align 8 dereferenceable(40) %4) #8
  call void @llvm.lifetime.end.p0(i64 40, ptr nonnull %4) #8
  br label %32

31:                                               ; preds = %10, %6, %2, %26
  %.09 = phi i1 [ true, %26 ], [ false, %2 ], [ false, %6 ], [ false, %10 ]
  ret i1 %.09

32:                                               ; preds = %29, %27
  %.pn = phi { ptr, i32 } [ %30, %29 ], [ %28, %27 ]
  resume { ptr, i32 } %.pn
}